; Function Attrs: nounwind uwtable
define ptr @l___private_Lean_Meta_FunInfo_0__Lean_Meta_whenHasVar___rarg(ptr noundef %0, ptr noundef %1, ptr noundef %2) local_unnamed_addr #1 {
  %4 = tail call zeroext i8 @l_Lean_Expr_hasFVar(ptr noundef %0) #5
  %5 = icmp eq i8 %4, 0
  br i1 %5, label %6, label %16

6:                                                ; preds = %3
  %7 = ptrtoint ptr %2 to i64
  %8 = and i64 %7, 1
  %.not = icmp eq i64 %8, 0
  br i1 %.not, label %9, label %lean_dec.exit

9:                                                ; preds = %6
  %10 = load i32, ptr %2, align 4, !tbaa !4
  %11 = icmp sgt i32 %10, 1
  br i1 %11, label %12, label %14, !prof !11

12:                                               ; preds = %9
  %13 = add nsw i32 %10, -1
  store i32 %13, ptr %2, align 4, !tbaa !4
  br label %lean_dec.exit

14:                                               ; preds = %9
  %.not.i = icmp eq i32 %10, 0
  br i1 %.not.i, label %lean_dec.exit, label %15

15:                                               ; preds = %14
  tail call void @lean_dec_ref_cold(ptr noundef nonnull %2) #5
  br label %lean_dec.exit

16:                                               ; preds = %3
  %17 = tail call ptr @lean_apply_1(ptr noundef %2, ptr noundef %1) #5
  br label %lean_dec.exit

lean_dec.exit:                                    ; preds = %6, %12, %14, %15, %16
  %.0 = phi ptr [ %17, %16 ], [ %1, %15 ], [ %1, %14 ], [ %1, %12 ], [ %1, %6 ]
  ret ptr %.0
}